target datalayout = "e-m:e-p270:32:32-p271:32:32-p272:64:64-i64:64-i128:128-f80:128-n8:16:32:64-S128"
target triple = "x86_64-pc-linux-gnu"

%struct.H5B_class_t = type { i32, i64, ptr, ptr, ptr, ptr, ptr, ptr, i8, i8, i32, ptr, ptr, ptr, ptr }
%struct.H5O_stab_t = type { i64, i64 }
%struct.H5O_loc_t = type { ptr, i64, i8 }
%struct.H5G_entry_t = type { i32, %union.H5G_cache_t, i64, i64 }
%union.H5G_cache_t = type { %struct.anon }
%struct.anon = type { i64, i64 }

@.str = private unnamed_addr constant [101 x i8] c"generated/home/dtcxzyw/WorkSpace/Projects/compilers/llvm-opt-benchmark/bench/hdf5/hdf5/src/H5Gtest.c\00", align 1
@H5E_BADTYPE_g = external global i64, align 8
@H5E_SYM_g = external global i64, align 8
@H5E_BADVALUE_g = external global i64, align 8
@H5E_BADMESG_g = external global i64, align 8
@H5E_NOTFOUND_g = external global i64, align 8
@.str.8 = private unnamed_addr constant [36 x i8] c"unable to read symbol table message\00", align 1
@__func__.H5G__verify_cached_stab_test = private unnamed_addr constant [29 x i8] c"H5G__verify_cached_stab_test\00", align 1
@.str.23 = private unnamed_addr constant [39 x i8] c"symbol table information is not cached\00", align 1
@.str.24 = private unnamed_addr constant [46 x i8] c"cached stab info does not match object header\00", align 1
@H5B_SNODE = external global [1 x %struct.H5B_class_t], align 16
@H5E_BTREE_g = external global i64, align 8
@.str.25 = private unnamed_addr constant [26 x i8] c"b-tree address is invalid\00", align 1
@H5E_HEAP_g = external global i64, align 8
@.str.26 = private unnamed_addr constant [24 x i8] c"heap address is invalid\00", align 1
@H5E_PROTECT_g = external global i64, align 8
@.str.27 = private unnamed_addr constant [38 x i8] c"unable to unprotect symbol table heap\00", align 1

; Function Attrs: nounwind uwtable
define i32 @H5G__verify_cached_stab_test(ptr noundef %0, ptr noundef %1) #0 {
  %3 = alloca ptr, align 8
  %4 = alloca ptr, align 8
  %5 = alloca %struct.H5O_stab_t, align 8
  %6 = alloca ptr, align 8
  %7 = alloca i32, align 4
  %8 = alloca i64, align 8
  %9 = alloca i8, align 1
  store ptr %0, ptr %3, align 8
  store ptr %1, ptr %4, align 8
  store ptr null, ptr %6, align 8
  store i32 0, ptr %7, align 4
  store i64 -1, ptr %8, align 8
  store i8 0, ptr %9, align 1
  %10 = load ptr, ptr %3, align 8
  %11 = getelementptr inbounds %struct.H5O_loc_t, ptr %10, i32 0, i32 1
  %12 = load i64, ptr %11, align 8
  call void @H5AC_tag(i64 noundef %12, ptr noundef %8)
  %13 = load ptr, ptr %4, align 8
  %14 = getelementptr inbounds %struct.H5G_entry_t, ptr %13, i32 0, i32 0
  %15 = load i32, ptr %14, align 8
  %16 = icmp ne i32 %15, 1
  br i1 %16, label %17, label %32

17:                                               ; preds = %2
  br label %18

18:                                               ; preds = %17
  br label %19

19:                                               ; preds = %18
  br label %20

20:                                               ; preds = %19
  %21 = load i64, ptr @H5E_SYM_g, align 8
  %22 = load i64, ptr @H5E_BADTYPE_g, align 8
  %23 = call i32 (ptr, ptr, i32, i64, i64, ptr, ...) @H5E_printf_stack(ptr noundef @.str, ptr noundef @__func__.H5G__verify_cached_stab_test, i32 noundef 663, i64 noundef %21, i64 noundef %22, ptr noundef @.str.23)
  br label %24

24:                                               ; preds = %20
  store i8 1, ptr %9, align 1
  %25 = load i8, ptr %9, align 1
  %26 = trunc i8 %25 to i1
  %27 = zext i1 %26 to i8
  store i8 %27, ptr %9, align 1
  br label %28

28:                                               ; preds = %24
  br label %29

29:                                               ; preds = %28
  store i32 -1, ptr %7, align 4
  br label %129

30:                                               ; No predecessors!
  br label %31

31:                                               ; preds = %30
  br label %32

32:                                               ; preds = %31, %2
  %33 = load ptr, ptr %3, align 8
  %34 = call ptr @H5O_msg_read(ptr noundef %33, i32 noundef 17, ptr noundef %5)
  %35 = icmp eq ptr null, %34
  br i1 %35, label %36, label %51

36:                                               ; preds = %32
  br label %37

37:                                               ; preds = %36
  br label %38

38:                                               ; preds = %37
  br label %39

39:                                               ; preds = %38
  %40 = load i64, ptr @H5E_SYM_g, align 8
  %41 = load i64, ptr @H5E_BADMESG_g, align 8
  %42 = call i32 (ptr, ptr, i32, i64, i64, ptr, ...) @H5E_printf_stack(ptr noundef @.str, ptr noundef @__func__.H5G__verify_cached_stab_test, i32 noundef 667, i64 noundef %40, i64 noundef %41, ptr noundef @.str.8)
  br label %43

43:                                               ; preds = %39
  store i8 1, ptr %9, align 1
  %44 = load i8, ptr %9, align 1
  %45 = trunc i8 %44 to i1
  %46 = zext i1 %45 to i8
  store i8 %46, ptr %9, align 1
  br label %47

47:                                               ; preds = %43
  br label %48

48:                                               ; preds = %47
  store i32 -1, ptr %7, align 4
  br label %129

49:                                               ; No predecessors!
  br label %50

50:                                               ; preds = %49
  br label %51

51:                                               ; preds = %50, %32
  %52 = load ptr, ptr %4, align 8
  %53 = getelementptr inbounds %struct.H5G_entry_t, ptr %52, i32 0, i32 1
  %54 = getelementptr inbounds %struct.anon, ptr %53, i32 0, i32 0
  %55 = load i64, ptr %54, align 8
  %56 = getelementptr inbounds %struct.H5O_stab_t, ptr %5, i32 0, i32 0
  %57 = load i64, ptr %56, align 8
  %58 = icmp ne i64 %55, %57
  br i1 %58, label %67, label %59

59:                                               ; preds = %51
  %60 = load ptr, ptr %4, align 8
  %61 = getelementptr inbounds %struct.H5G_entry_t, ptr %60, i32 0, i32 1
  %62 = getelementptr inbounds %struct.anon, ptr %61, i32 0, i32 1
  %63 = load i64, ptr %62, align 8
  %64 = getelementptr inbounds %struct.H5O_stab_t, ptr %5, i32 0, i32 1
  %65 = load i64, ptr %64, align 8
  %66 = icmp ne i64 %63, %65
  br i1 %66, label %67, label %82

67:                                               ; preds = %59, %51
  br label %68

68:                                               ; preds = %67
  br label %69

69:                                               ; preds = %68
  br label %70

70:                                               ; preds = %69
  %71 = load i64, ptr @H5E_SYM_g, align 8
  %72 = load i64, ptr @H5E_BADVALUE_g, align 8
  %73 = call i32 (ptr, ptr, i32, i64, i64, ptr, ...) @H5E_printf_stack(ptr noundef @.str, ptr noundef @__func__.H5G__verify_cached_stab_test, i32 noundef 673, i64 noundef %71, i64 noundef %72, ptr noundef @.str.24)
  br label %74

74:                                               ; preds = %70
  store i8 1, ptr %9, align 1
  %75 = load i8, ptr %9, align 1
  %76 = trunc i8 %75 to i1
  %77 = zext i1 %76 to i8
  store i8 %77, ptr %9, align 1
  br label %78

78:                                               ; preds = %74
  br label %79

79:                                               ; preds = %78
  store i32 -1, ptr %7, align 4
  br label %129

80:                                               ; No predecessors!
  br label %81

81:                                               ; preds = %80
  br label %82

82:                                               ; preds = %81, %59
  %83 = load ptr, ptr %3, align 8
  %84 = getelementptr inbounds %struct.H5O_loc_t, ptr %83, i32 0, i32 0
  %85 = load ptr, ptr %84, align 8
  %86 = getelementptr inbounds %struct.H5O_stab_t, ptr %5, i32 0, i32 0
  %87 = load i64, ptr %86, align 8
  %88 = call i32 @H5B_valid(ptr noundef %85, ptr noundef @H5B_SNODE, i64 noundef %87)
  %89 = icmp slt i32 %88, 0
  br i1 %89, label %90, label %105

90:                                               ; preds = %82
  br label %91

91:                                               ; preds = %90
  br label %92

92:                                               ; preds = %91
  br label %93

93:                                               ; preds = %92
  %94 = load i64, ptr @H5E_BTREE_g, align 8
  %95 = load i64, ptr @H5E_NOTFOUND_g, align 8
  %96 = call i32 (ptr, ptr, i32, i64, i64, ptr, ...) @H5E_printf_stack(ptr noundef @.str, ptr noundef @__func__.H5G__verify_cached_stab_test, i32 noundef 677, i64 noundef %94, i64 noundef %95, ptr noundef @.str.25)
  br label %97

97:                                               ; preds = %93
  store i8 1, ptr %9, align 1
  %98 = load i8, ptr %9, align 1
  %99 = trunc i8 %98 to i1
  %100 = zext i1 %99 to i8
  store i8 %100, ptr %9, align 1
  br label %101

101:                                              ; preds = %97
  br label %102

102:                                              ; preds = %101
  store i32 -1, ptr %7, align 4
  br label %129

103:                                              ; No predecessors!
  br label %104

104:                                              ; preds = %103
  br label %105

105:                                              ; preds = %104, %82
  %106 = load ptr, ptr %3, align 8
  %107 = getelementptr inbounds %struct.H5O_loc_t, ptr %106, i32 0, i32 0
  %108 = load ptr, ptr %107, align 8
  %109 = getelementptr inbounds %struct.H5O_stab_t, ptr %5, i32 0, i32 1
  %110 = load i64, ptr %109, align 8
  %111 = call ptr @H5HL_protect(ptr noundef %108, i64 noundef %110, i32 noundef 128)
  store ptr %111, ptr %6, align 8
  %112 = icmp eq ptr null, %111
  br i1 %112, label %113, label %128

113:                                              ; preds = %105
  br label %114

114:                                              ; preds = %113
  br label %115

115:                                              ; preds = %114
  br label %116

116:                                              ; preds = %115
  %117 = load i64, ptr @H5E_HEAP_g, align 8
  %118 = load i64, ptr @H5E_NOTFOUND_g, align 8
  %119 = call i32 (ptr, ptr, i32, i64, i64, ptr, ...) @H5E_printf_stack(ptr noundef @.str, ptr noundef @__func__.H5G__verify_cached_stab_test, i32 noundef 681, i64 noundef %117, i64 noundef %118, ptr noundef @.str.26)
  br label %120

120:                                              ; preds = %116
  store i8 1, ptr %9, align 1
  %121 = load i8, ptr %9, align 1
  %122 = trunc i8 %121 to i1
  %123 = zext i1 %122 to i8
  store i8 %123, ptr %9, align 1
  br label %124

124:                                              ; preds = %120
  br label %125

125:                                              ; preds = %124
  store i32 -1, ptr %7, align 4
  br label %129

126:                                              ; No predecessors!
  br label %127

127:                                              ; preds = %126
  br label %128

128:                                              ; preds = %127, %105
  br label %129

129:                                              ; preds = %128, %125, %102, %79, %48, %29
  %130 = load ptr, ptr %6, align 8
  %131 = icmp ne ptr %130, null
  br i1 %131, label %132, label %149

132:                                              ; preds = %129
  %133 = load ptr, ptr %6, align 8
  %134 = call i32 @H5HL_unprotect(ptr noundef %133)
  %135 = icmp slt i32 %134, 0
  br i1 %135, label %136, label %149

136:                                              ; preds = %132
  br label %137

137:                                              ; preds = %136
  br label %138

138:                                              ; preds = %137
  br label %139

139:                                              ; preds = %138
  %140 = load i64, ptr @H5E_SYM_g, align 8
  %141 = load i64, ptr @H5E_PROTECT_g, align 8
  %142 = call i32 (ptr, ptr, i32, i64, i64, ptr, ...) @H5E_printf_stack(ptr noundef @.str, ptr noundef @__func__.H5G__verify_cached_stab_test, i32 noundef 686, i64 noundef %140, i64 noundef %141, ptr noundef @.str.27)
  br label %143

143:                                              ; preds = %139
  store i8 1, ptr %9, align 1
  %144 = load i8, ptr %9, align 1
  %145 = trunc i8 %144 to i1
  %146 = zext i1 %145 to i8
  store i8 %146, ptr %9, align 1
  br label %147

147:                                              ; preds = %143
  store i32 -1, ptr %7, align 4
  br label %148

148:                                              ; preds = %147
  br label %149

149:                                              ; preds = %148, %132, %129
  %150 = load i64, ptr %8, align 8
  call void @H5AC_tag(i64 noundef %150, ptr noundef null)
  %151 = load i32, ptr %7, align 4
  ret i32 %151
}