; Function Attrs: nounwind uwtable
define range(i32 -1, 1) i32 @H5G__verify_cached_stab_test(ptr noundef %0, ptr nocapture noundef readonly %1) local_unnamed_addr #0 {
  %3 = alloca %struct.H5O_stab_t, align 8
  %4 = alloca i64, align 8
  store i64 -1, ptr %4, align 8
  %5 = getelementptr inbounds i8, ptr %0, i64 8
  %6 = load i64, ptr %5, align 8
  call void @H5AC_tag(i64 noundef %6, ptr noundef nonnull %4) #4
  %7 = load i32, ptr %1, align 8
  %.not = icmp eq i32 %7, 1
  br i1 %.not, label %12, label %8

8:                                                ; preds = %2
  %9 = load i64, ptr @H5E_SYM_g, align 8
  %10 = load i64, ptr @H5E_BADTYPE_g, align 8
  %11 = call i32 (ptr, ptr, i32, i64, i64, ptr, ...) @H5E_printf_stack(ptr noundef nonnull @.str, ptr noundef nonnull @__func__.H5G__verify_cached_stab_test, i32 noundef 663, i64 noundef %9, i64 noundef %10, ptr noundef nonnull @.str.23) #4
  br label %.thread

12:                                               ; preds = %2
  %13 = call ptr @H5O_msg_read(ptr noundef nonnull %0, i32 noundef 17, ptr noundef nonnull %3) #4
  %14 = icmp eq ptr %13, null
  br i1 %14, label %15, label %19

15:                                               ; preds = %12
  %16 = load i64, ptr @H5E_SYM_g, align 8
  %17 = load i64, ptr @H5E_BADMESG_g, align 8
  %18 = call i32 (ptr, ptr, i32, i64, i64, ptr, ...) @H5E_printf_stack(ptr noundef nonnull @.str, ptr noundef nonnull @__func__.H5G__verify_cached_stab_test, i32 noundef 667, i64 noundef %16, i64 noundef %17, ptr noundef nonnull @.str.8) #4
  br label %.thread

19:                                               ; preds = %12
  %20 = getelementptr inbounds i8, ptr %1, i64 8
  %21 = load i64, ptr %20, align 8
  %22 = load i64, ptr %3, align 8
  %.not19 = icmp eq i64 %21, %22
  br i1 %.not19, label %23, label %28

23:                                               ; preds = %19
  %24 = getelementptr inbounds i8, ptr %1, i64 16
  %25 = load i64, ptr %24, align 8
  %26 = getelementptr inbounds i8, ptr %3, i64 8
  %27 = load i64, ptr %26, align 8
  %.not20 = icmp eq i64 %25, %27
  br i1 %.not20, label %32, label %28

28:                                               ; preds = %19, %23
  %29 = load i64, ptr @H5E_SYM_g, align 8
  %30 = load i64, ptr @H5E_BADVALUE_g, align 8
  %31 = call i32 (ptr, ptr, i32, i64, i64, ptr, ...) @H5E_printf_stack(ptr noundef nonnull @.str, ptr noundef nonnull @__func__.H5G__verify_cached_stab_test, i32 noundef 673, i64 noundef %29, i64 noundef %30, ptr noundef nonnull @.str.24) #4
  br label %.thread

32:                                               ; preds = %23
  %33 = load ptr, ptr %0, align 8
  %34 = call i32 @H5B_valid(ptr noundef %33, ptr noundef nonnull @H5B_SNODE, i64 noundef %21) #4
  %35 = icmp slt i32 %34, 0
  br i1 %35, label %36, label %40

36:                                               ; preds = %32
  %37 = load i64, ptr @H5E_BTREE_g, align 8
  %38 = load i64, ptr @H5E_NOTFOUND_g, align 8
  %39 = call i32 (ptr, ptr, i32, i64, i64, ptr, ...) @H5E_printf_stack(ptr noundef nonnull @.str, ptr noundef nonnull @__func__.H5G__verify_cached_stab_test, i32 noundef 677, i64 noundef %37, i64 noundef %38, ptr noundef nonnull @.str.25) #4
  br label %.thread

40:                                               ; preds = %32
  %41 = load ptr, ptr %0, align 8
  %42 = load i64, ptr %26, align 8
  %43 = call ptr @H5HL_protect(ptr noundef %41, i64 noundef %42, i32 noundef 128) #4
  %44 = icmp eq ptr %43, null
  br i1 %44, label %45, label %49

45:                                               ; preds = %40
  %46 = load i64, ptr @H5E_HEAP_g, align 8
  %47 = load i64, ptr @H5E_NOTFOUND_g, align 8
  %48 = call i32 (ptr, ptr, i32, i64, i64, ptr, ...) @H5E_printf_stack(ptr noundef nonnull @.str, ptr noundef nonnull @__func__.H5G__verify_cached_stab_test, i32 noundef 681, i64 noundef %46, i64 noundef %47, ptr noundef nonnull @.str.26) #4
  br label %.thread

49:                                               ; preds = %40
  %50 = call i32 @H5HL_unprotect(ptr noundef nonnull %43) #4
  %51 = icmp slt i32 %50, 0
  br i1 %51, label %52, label %.thread

52:                                               ; preds = %49
  %53 = load i64, ptr @H5E_SYM_g, align 8
  %54 = load i64, ptr @H5E_PROTECT_g, align 8
  %55 = call i32 (ptr, ptr, i32, i64, i64, ptr, ...) @H5E_printf_stack(ptr noundef nonnull @.str, ptr noundef nonnull @__func__.H5G__verify_cached_stab_test, i32 noundef 686, i64 noundef %53, i64 noundef %54, ptr noundef nonnull @.str.27) #4
  br label %.thread

.thread:                                          ; preds = %45, %36, %28, %15, %8, %52, %49
  %.1 = phi i32 [ -1, %52 ], [ 0, %49 ], [ -1, %8 ], [ -1, %15 ], [ -1, %28 ], [ -1, %36 ], [ -1, %45 ]
  %56 = load i64, ptr %4, align 8
  call void @H5AC_tag(i64 noundef %56, ptr noundef null) #4
  ret i32 %.1
}